target datalayout = "e-m:e-p270:32:32-p271:32:32-p272:64:64-i64:64-i128:128-f80:128-n8:16:32:64-S128"
target triple = "x86_64-pc-linux-gnu"

%class.vector.63 = type { ptr }
%"class.datalog::tr_infrastructure<datalog::relation_traits>::base_ancestor" = type <{ ptr, ptr, %"class.datalog::relation_signature", i32, [4 x i8] }>
%"class.datalog::relation_signature" = type { %"class.datalog::tr_infrastructure<datalog::relation_traits>::signature_base" }
%"class.datalog::tr_infrastructure<datalog::relation_traits>::signature_base" = type { %class.ptr_vector.62 }
%class.ptr_vector.62 = type { %class.vector.63 }
%"class.datalog::tr_infrastructure<datalog::relation_traits>::base_fn" = type { ptr }
%class.svector.50 = type { %class.vector.51 }
%class.vector.51 = type { ptr }
%"class.datalog::tr_infrastructure<datalog::relation_traits>::convenient_project_fn" = type { %"class.datalog::tr_infrastructure<datalog::relation_traits>::convenient_transformer_fn", %class.svector.50 }
%"class.datalog::tr_infrastructure<datalog::relation_traits>::convenient_transformer_fn" = type { %"class.datalog::tr_infrastructure<datalog::relation_traits>::transformer_fn", %"class.datalog::relation_signature" }
%"class.datalog::tr_infrastructure<datalog::relation_traits>::transformer_fn" = type { %"class.datalog::tr_infrastructure<datalog::relation_traits>::base_fn" }

; Function Attrs: mustprogress nounwind uwtable
define linkonce_odr hidden void @_ZN6vectorIP4sortLb0EjEC2Ev(ptr noundef nonnull align 8 dereferenceable(8) %0) unnamed_addr #7 comdat align 2 {
  %2 = alloca ptr, align 8
  store ptr %0, ptr %2, align 8, !tbaa !38
  %3 = load ptr, ptr %2, align 8
  %4 = getelementptr inbounds nuw %class.vector.63, ptr %3, i32 0, i32 0
  store ptr null, ptr %4, align 8, !tbaa !40
  ret void
}

; Function Attrs: mustprogress nounwind uwtable
define linkonce_odr hidden void @_ZN10ptr_vectorI4sortEC2Ev(ptr noundef nonnull align 8 dereferenceable(8) %0) unnamed_addr #7 comdat align 2 {
  %2 = alloca ptr, align 8
  store ptr %0, ptr %2, align 8, !tbaa !293
  %3 = load ptr, ptr %2, align 8
  call void @_ZN6vectorIP4sortLb0EjEC2Ev(ptr noundef nonnull align 8 dereferenceable(8) %3) #3
  ret void
}

; Function Attrs: mustprogress uwtable
define linkonce_odr hidden noundef nonnull align 8 dereferenceable(8) ptr @_ZN6vectorIjLb0EjE9push_backERKj(ptr noundef nonnull align 8 dereferenceable(8) %0, ptr noundef nonnull align 4 dereferenceable(4) %1) #4 comdat align 2 {
  %3 = alloca ptr, align 8
  %4 = alloca ptr, align 8
  store ptr %0, ptr %3, align 8, !tbaa !287
  store ptr %1, ptr %4, align 8, !tbaa !50
  %5 = load ptr, ptr %3, align 8
  %6 = getelementptr inbounds nuw %class.vector.51, ptr %5, i32 0, i32 0
  %7 = load ptr, ptr %6, align 8, !tbaa !295
  %8 = icmp eq ptr %7, null
  br i1 %8, label %19, label %9

9:                                                ; preds = %2
  %10 = getelementptr inbounds nuw %class.vector.51, ptr %5, i32 0, i32 0
  %11 = load ptr, ptr %10, align 8, !tbaa !295
  %12 = getelementptr inbounds i32, ptr %11, i64 -1
  %13 = load i32, ptr %12, align 4, !tbaa !33
  %14 = getelementptr inbounds nuw %class.vector.51, ptr %5, i32 0, i32 0
  %15 = load ptr, ptr %14, align 8, !tbaa !295
  %16 = getelementptr inbounds i32, ptr %15, i64 -2
  %17 = load i32, ptr %16, align 4, !tbaa !33
  %18 = icmp eq i32 %13, %17
  br i1 %18, label %19, label %20

19:                                               ; preds = %9, %2
  call void @_ZN6vectorIjLb0EjE13expand_vectorEv(ptr noundef nonnull align 8 dereferenceable(8) %5)
  br label %20

20:                                               ; preds = %19, %9
  %21 = getelementptr inbounds nuw %class.vector.51, ptr %5, i32 0, i32 0
  %22 = load ptr, ptr %21, align 8, !tbaa !295
  %23 = getelementptr inbounds nuw %class.vector.51, ptr %5, i32 0, i32 0
  %24 = load ptr, ptr %23, align 8, !tbaa !295
  %25 = getelementptr inbounds i32, ptr %24, i64 -1
  %26 = load i32, ptr %25, align 4, !tbaa !33
  %27 = zext i32 %26 to i64
  %28 = getelementptr inbounds nuw i32, ptr %22, i64 %27
  %29 = load ptr, ptr %4, align 8, !tbaa !50
  %30 = load i32, ptr %29, align 4, !tbaa !33
  store i32 %30, ptr %28, align 4, !tbaa !33
  %31 = getelementptr inbounds nuw %class.vector.51, ptr %5, i32 0, i32 0
  %32 = load ptr, ptr %31, align 8, !tbaa !295
  %33 = getelementptr inbounds i32, ptr %32, i64 -1
  %34 = load i32, ptr %33, align 4, !tbaa !33
  %35 = add i32 %34, 1
  store i32 %35, ptr %33, align 4, !tbaa !33
  ret ptr %5
}

; Function Attrs: inlinehint mustprogress nounwind uwtable
define linkonce_odr hidden void @_ZN7datalog17tr_infrastructureINS_15relation_traitsEE14signature_baseC2Ev(ptr noundef nonnull align 8 dereferenceable(8) %0) unnamed_addr #6 comdat align 2 {
  %2 = alloca ptr, align 8
  store ptr %0, ptr %2, align 8, !tbaa !291
  %3 = load ptr, ptr %2, align 8
  call void @_ZN10ptr_vectorI4sortEC2Ev(ptr noundef nonnull align 8 dereferenceable(8) %3) #3
  ret void
}

; Function Attrs: mustprogress nounwind uwtable
define linkonce_odr hidden void @_ZN7datalog17tr_infrastructureINS_15relation_traitsEE7base_fnC2Ev(ptr noundef nonnull align 8 dereferenceable(8) %0) unnamed_addr #7 comdat align 2 {
  %2 = alloca ptr, align 8
  store ptr %0, ptr %2, align 8, !tbaa !289
  %3 = load ptr, ptr %2, align 8
  store ptr getelementptr inbounds inrange(-16, 16) ({ [4 x ptr] }, ptr @_ZTVN7datalog17tr_infrastructureINS_15relation_traitsEE7base_fnE, i32 0, i32 0, i32 2), ptr %3, align 8, !tbaa !10
  ret void
}

; Function Attrs: mustprogress uwtable
define linkonce_odr hidden void @_ZN6vectorIjLb0EjEC2EjPKj(ptr noundef nonnull align 8 dereferenceable(8) %0, i32 noundef %1, ptr noundef %2) unnamed_addr #4 comdat align 2 {
  %4 = alloca ptr, align 8
  %5 = alloca i32, align 4
  %6 = alloca ptr, align 8
  %7 = alloca i32, align 4
  store ptr %0, ptr %4, align 8, !tbaa !287
  store i32 %1, ptr %5, align 4, !tbaa !33
  store ptr %2, ptr %6, align 8, !tbaa !50
  %8 = load ptr, ptr %4, align 8
  %9 = getelementptr inbounds nuw %class.vector.51, ptr %8, i32 0, i32 0
  store ptr null, ptr %9, align 8, !tbaa !295
  call void @llvm.lifetime.start.p0(i64 4, ptr %7) #3
  store i32 0, ptr %7, align 4, !tbaa !33
  br label %10

10:                                               ; preds = %21, %3
  %11 = load i32, ptr %7, align 4, !tbaa !33
  %12 = load i32, ptr %5, align 4, !tbaa !33
  %13 = icmp ult i32 %11, %12
  br i1 %13, label %15, label %14

14:                                               ; preds = %10
  call void @llvm.lifetime.end.p0(i64 4, ptr %7) #3
  br label %24

15:                                               ; preds = %10
  %16 = load ptr, ptr %6, align 8, !tbaa !50
  %17 = load i32, ptr %7, align 4, !tbaa !33
  %18 = zext i32 %17 to i64
  %19 = getelementptr inbounds nuw i32, ptr %16, i64 %18
  %20 = call noundef nonnull align 8 dereferenceable(8) ptr @_ZN6vectorIjLb0EjE9push_backERKj(ptr noundef nonnull align 8 dereferenceable(8) %8, ptr noundef nonnull align 4 dereferenceable(4) %19)
  br label %21

21:                                               ; preds = %15
  %22 = load i32, ptr %7, align 4, !tbaa !33
  %23 = add i32 %22, 1
  store i32 %23, ptr %7, align 4, !tbaa !33
  br label %10, !llvm.loop !296

24:                                               ; preds = %14
  ret void
}

; Function Attrs: inlinehint mustprogress nounwind uwtable
define linkonce_odr hidden void @_ZN7datalog18relation_signatureC2Ev(ptr noundef nonnull align 8 dereferenceable(8) %0) unnamed_addr #6 comdat align 2 {
  %2 = alloca ptr, align 8
  store ptr %0, ptr %2, align 8, !tbaa !31
  %3 = load ptr, ptr %2, align 8
  call void @_ZN7datalog17tr_infrastructureINS_15relation_traitsEE14signature_baseC2Ev(ptr noundef nonnull align 8 dereferenceable(8) %3) #3
  ret void
}

; Function Attrs: inlinehint mustprogress nounwind uwtable
define linkonce_odr hidden void @_ZN7datalog17tr_infrastructureINS_15relation_traitsEE14transformer_fnC2Ev(ptr noundef nonnull align 8 dereferenceable(8) %0) unnamed_addr #6 comdat align 2 {
  %2 = alloca ptr, align 8
  store ptr %0, ptr %2, align 8, !tbaa !357
  %3 = load ptr, ptr %2, align 8
  call void @_ZN7datalog17tr_infrastructureINS_15relation_traitsEE7base_fnC2Ev(ptr noundef nonnull align 8 dereferenceable(8) %3) #3
  store ptr getelementptr inbounds inrange(-16, 24) ({ [5 x ptr] }, ptr @_ZTVN7datalog17tr_infrastructureINS_15relation_traitsEE14transformer_fnE, i32 0, i32 0, i32 2), ptr %3, align 8, !tbaa !10
  ret void
}

; Function Attrs: mustprogress nounwind uwtable
define linkonce_odr hidden noundef nonnull align 8 dereferenceable(8) ptr @_ZN7datalog17tr_infrastructureINS_15relation_traitsEE25convenient_transformer_fn20get_result_signatureEv(ptr noundef nonnull align 8 dereferenceable(16) %0) #7 comdat align 2 {
  %2 = alloca ptr, align 8
  store ptr %0, ptr %2, align 8, !tbaa !355
  %3 = load ptr, ptr %2, align 8
  %4 = getelementptr inbounds nuw %"class.datalog::tr_infrastructure<datalog::relation_traits>::convenient_transformer_fn", ptr %3, i32 0, i32 1
  ret ptr %4
}

; Function Attrs: mustprogress uwtable
define linkonce_odr hidden void @_ZN7svectorIjjEC2EjPKj(ptr noundef nonnull align 8 dereferenceable(8) %0, i32 noundef %1, ptr noundef %2) unnamed_addr #4 comdat align 2 {
  %4 = alloca ptr, align 8
  %5 = alloca i32, align 4
  %6 = alloca ptr, align 8
  store ptr %0, ptr %4, align 8, !tbaa !257
  store i32 %1, ptr %5, align 4, !tbaa !33
  store ptr %2, ptr %6, align 8, !tbaa !50
  %7 = load ptr, ptr %4, align 8
  %8 = load i32, ptr %5, align 4, !tbaa !33
  %9 = load ptr, ptr %6, align 8, !tbaa !50
  call void @_ZN6vectorIjLb0EjEC2EjPKj(ptr noundef nonnull align 8 dereferenceable(8) %7, i32 noundef %8, ptr noundef %9)
  ret void
}

; Function Attrs: inlinehint mustprogress nounwind uwtable
define linkonce_odr hidden void @_ZN7datalog17tr_infrastructureINS_15relation_traitsEE25convenient_transformer_fnC2Ev(ptr noundef nonnull align 8 dereferenceable(16) %0) unnamed_addr #6 comdat align 2 {
  %2 = alloca ptr, align 8
  store ptr %0, ptr %2, align 8, !tbaa !355
  %3 = load ptr, ptr %2, align 8
  call void @_ZN7datalog17tr_infrastructureINS_15relation_traitsEE14transformer_fnC2Ev(ptr noundef nonnull align 8 dereferenceable(8) %3) #3
  store ptr getelementptr inbounds inrange(-16, 24) ({ [5 x ptr] }, ptr @_ZTVN7datalog17tr_infrastructureINS_15relation_traitsEE25convenient_transformer_fnE, i32 0, i32 0, i32 2), ptr %3, align 8, !tbaa !10
  %4 = getelementptr inbounds nuw %"class.datalog::tr_infrastructure<datalog::relation_traits>::convenient_transformer_fn", ptr %3, i32 0, i32 1
  call void @_ZN7datalog18relation_signatureC2Ev(ptr noundef nonnull align 8 dereferenceable(8) %4) #3
  ret void
}

; Function Attrs: mustprogress uwtable
define linkonce_odr hidden void @_ZN7datalog17tr_infrastructureINS_15relation_traitsEE21convenient_project_fnC2ERKNS_18relation_signatureEjPKj(ptr noundef nonnull align 8 dereferenceable(24) %0, ptr noundef nonnull align 8 dereferenceable(8) %1, i32 noundef %2, ptr noundef %3) unnamed_addr #4 comdat align 2 personality ptr @__gxx_personality_v0 {
  %5 = alloca ptr, align 8
  %6 = alloca ptr, align 8
  %7 = alloca i32, align 4
  %8 = alloca ptr, align 8
  %9 = alloca ptr, align 8
  %10 = alloca i32, align 4
  store ptr %0, ptr %5, align 8, !tbaa !353
  store ptr %1, ptr %6, align 8, !tbaa !31
  store i32 %2, ptr %7, align 4, !tbaa !33
  store ptr %3, ptr %8, align 8, !tbaa !50
  %11 = load ptr, ptr %5, align 8
  call void @_ZN7datalog17tr_infrastructureINS_15relation_traitsEE25convenient_transformer_fnC2Ev(ptr noundef nonnull align 8 dereferenceable(16) %11) #3
  store ptr getelementptr inbounds inrange(-16, 24) ({ [5 x ptr] }, ptr @_ZTVN7datalog17tr_infrastructureINS_15relation_traitsEE21convenient_project_fnE, i32 0, i32 0, i32 2), ptr %11, align 8, !tbaa !10
  %12 = getelementptr inbounds nuw %"class.datalog::tr_infrastructure<datalog::relation_traits>::convenient_project_fn", ptr %11, i32 0, i32 1
  %13 = load i32, ptr %7, align 4, !tbaa !33
  %14 = load ptr, ptr %8, align 8, !tbaa !50
  invoke void @_ZN7svectorIjjEC2EjPKj(ptr noundef nonnull align 8 dereferenceable(8) %12, i32 noundef %13, ptr noundef %14)
          to label %15 unwind label %22

15:                                               ; preds = %4
  %16 = load ptr, ptr %6, align 8, !tbaa !31
  %17 = load i32, ptr %7, align 4, !tbaa !33
  %18 = load ptr, ptr %8, align 8, !tbaa !50
  %19 = invoke noundef nonnull align 8 dereferenceable(8) ptr @_ZN7datalog17tr_infrastructureINS_15relation_traitsEE25convenient_transformer_fn20get_result_signatureEv(ptr noundef nonnull align 8 dereferenceable(16) %11)
          to label %20 unwind label %26

20:                                               ; preds = %15
  invoke void @_ZN7datalog17tr_infrastructureINS_15relation_traitsEE14signature_base12from_projectERKNS_18relation_signatureEjPKjRS4_(ptr noundef nonnull align 8 dereferenceable(8) %16, i32 noundef %17, ptr noundef %18, ptr noundef nonnull align 8 dereferenceable(8) %19)
          to label %21 unwind label %26

21:                                               ; preds = %20
  ret void

22:                                               ; preds = %4
  %23 = landingpad { ptr, i32 }
          cleanup
  %24 = extractvalue { ptr, i32 } %23, 0
  store ptr %24, ptr %9, align 8
  %25 = extractvalue { ptr, i32 } %23, 1
  store i32 %25, ptr %10, align 4
  br label %30

26:                                               ; preds = %20, %15
  %27 = landingpad { ptr, i32 }
          cleanup
  %28 = extractvalue { ptr, i32 } %27, 0
  store ptr %28, ptr %9, align 8
  %29 = extractvalue { ptr, i32 } %27, 1
  store i32 %29, ptr %10, align 4
  call void @_ZN6vectorIjLb0EjED2Ev(ptr noundef nonnull align 8 dereferenceable(8) %12) #3
  br label %30

30:                                               ; preds = %26, %22
  call void @_ZN7datalog17tr_infrastructureINS_15relation_traitsEE25convenient_transformer_fnD2Ev(ptr noundef nonnull align 8 dereferenceable(16) %11) #3
  br label %31

31:                                               ; preds = %30
  %32 = load ptr, ptr %9, align 8
  %33 = load i32, ptr %10, align 4
  %34 = insertvalue { ptr, i32 } poison, ptr %32, 0
  %35 = insertvalue { ptr, i32 } %34, i32 %33, 1
  resume { ptr, i32 } %35
}

; Function Attrs: mustprogress uwtable
define linkonce_odr hidden void @_ZN7datalog24interval_relation_plugin10project_fnC2ERKNS_18relation_signatureEjPKj(ptr noundef nonnull align 8 dereferenceable(24) %0, ptr noundef nonnull align 8 dereferenceable(8) %1, i32 noundef %2, ptr noundef %3) unnamed_addr #4 comdat align 2 {
  %5 = alloca ptr, align 8
  %6 = alloca ptr, align 8
  %7 = alloca i32, align 4
  %8 = alloca ptr, align 8
  store ptr %0, ptr %5, align 8, !tbaa !56
  store ptr %1, ptr %6, align 8, !tbaa !31
  store i32 %2, ptr %7, align 4, !tbaa !33
  store ptr %3, ptr %8, align 8, !tbaa !50
  %9 = load ptr, ptr %5, align 8
  %10 = load ptr, ptr %6, align 8, !tbaa !31
  %11 = load i32, ptr %7, align 4, !tbaa !33
  %12 = load ptr, ptr %8, align 8, !tbaa !50
  call void @_ZN7datalog17tr_infrastructureINS_15relation_traitsEE21convenient_project_fnC2ERKNS_18relation_signatureEjPKj(ptr noundef nonnull align 8 dereferenceable(24) %9, ptr noundef nonnull align 8 dereferenceable(8) %10, i32 noundef %11, ptr noundef %12)
  store ptr getelementptr inbounds inrange(-16, 24) ({ [5 x ptr] }, ptr @_ZTVN7datalog24interval_relation_plugin10project_fnE, i32 0, i32 0, i32 2), ptr %9, align 8, !tbaa !10
  ret void
}

; Function Attrs: mustprogress nounwind uwtable
define linkonce_odr hidden noundef nonnull align 8 dereferenceable(8) ptr @_ZNK7datalog17tr_infrastructureINS_15relation_traitsEE13base_ancestor13get_signatureEv(ptr noundef nonnull align 8 dereferenceable(28) %0) #7 comdat align 2 {
  %2 = alloca ptr, align 8
  store ptr %0, ptr %2, align 8, !tbaa !52
  %3 = load ptr, ptr %2, align 8
  %4 = getelementptr inbounds nuw %"class.datalog::tr_infrastructure<datalog::relation_traits>::base_ancestor", ptr %3, i32 0, i32 2
  ret ptr %4
}

; Function Attrs: mustprogress uwtable
define hidden noundef ptr @_ZN7datalog24interval_relation_plugin13mk_project_fnERKNS_13relation_baseEjPKj(ptr noundef nonnull align 8 dereferenceable(240) %0, ptr noundef nonnull align 8 dereferenceable(28) %1, i32 noundef %2, ptr noundef %3) unnamed_addr #4 align 2 {
  %5 = alloca ptr, align 8
  %6 = alloca ptr, align 8
  %7 = alloca i32, align 4
  %8 = alloca ptr, align 8
  store ptr %0, ptr %5, align 8, !tbaa !3
  store ptr %1, ptr %6, align 8, !tbaa !48
  store i32 %2, ptr %7, align 4, !tbaa !33
  store ptr %3, ptr %8, align 8, !tbaa !50
  %9 = call noalias noundef ptr @_ZN6memory8allocateEm(i64 noundef 24)
  %10 = load ptr, ptr %6, align 8, !tbaa !48
  %11 = call noundef nonnull align 8 dereferenceable(8) ptr @_ZNK7datalog17tr_infrastructureINS_15relation_traitsEE13base_ancestor13get_signatureEv(ptr noundef nonnull align 8 dereferenceable(28) %10)
  %12 = load i32, ptr %7, align 4, !tbaa !33
  %13 = load ptr, ptr %8, align 8, !tbaa !50
  call void @_ZN7datalog24interval_relation_plugin10project_fnC2ERKNS_18relation_signatureEjPKj(ptr noundef nonnull align 8 dereferenceable(24) %9, ptr noundef nonnull align 8 dereferenceable(8) %11, i32 noundef %12, ptr noundef %13)
  ret ptr %9
}